; Function Attrs: mustprogress uwtable
define noundef ptr @_ZN5sim_t8get_coreERKNSt7__cxx1112basic_stringIcSt11char_traitsIcESaIcEEE(ptr noundef nonnull readonly align 8 captures(none) dereferenceable(2800) %0, ptr noundef nonnull readonly align 8 captures(none) dereferenceable(32) %1) local_unnamed_addr #7 align 2 personality ptr @__gxx_personality_v0 {
  %3 = alloca ptr, align 8
  call void @llvm.lifetime.start.p0(i64 8, ptr nonnull %3) #30
  %4 = load ptr, ptr %1, align 8, !tbaa !10
  %5 = call i64 @strtoul(ptr noundef %4, ptr noundef nonnull %3, i32 noundef 10) #30
  %6 = load ptr, ptr %3, align 8, !tbaa !20
  %7 = load i8, ptr %6, align 1, !tbaa !16
  %.not = icmp eq i8 %7, 0
  br i1 %.not, label %8, label %17

8:                                                ; preds = %2
  %9 = getelementptr inbounds nuw i8, ptr %0, i64 760
  %10 = getelementptr inbounds nuw i8, ptr %0, i64 768
  %11 = load ptr, ptr %10, align 8, !tbaa !21
  %12 = load ptr, ptr %9, align 8, !tbaa !24
  %13 = ptrtoint ptr %11 to i64
  %14 = ptrtoint ptr %12 to i64
  %15 = sub i64 %13, %14
  %16 = ashr exact i64 %15, 3
  %.not5 = icmp ult i64 %5, %16
  br i1 %.not5, label %_ZN5sim_t8get_coreEm.exit, label %17

17:                                               ; preds = %2, %8
  %18 = tail call ptr @__cxa_allocate_exception(i64 16) #30
  %19 = getelementptr inbounds nuw i8, ptr %18, i64 8
  store i64 -1, ptr %19, align 8, !tbaa !25
  store ptr getelementptr inbounds nuw inrange(-16, 80) (i8, ptr @_ZTV16trap_interactive, i64 16), ptr %18, align 8, !tbaa !27
  tail call void @__cxa_throw(ptr nonnull %18, ptr nonnull @_ZTI16trap_interactive, ptr nonnull @_ZN6trap_tD2Ev) #33
  unreachable

_ZN5sim_t8get_coreEm.exit:                        ; preds = %8
  %20 = getelementptr inbounds nuw ptr, ptr %12, i64 %5
  %21 = load ptr, ptr %20, align 8, !tbaa !29
  call void @llvm.lifetime.end.p0(i64 8, ptr nonnull %3) #30
  ret ptr %21
}